; Function Attrs: mustprogress nofree norecurse nosync nounwind willreturn memory(argmem: readwrite) uwtable
define void @_Z3AddPKdS0_Pd(ptr noundef readonly captures(none) %0, ptr noundef readonly captures(none) %1, ptr noundef writeonly captures(none) initializes((0, 16)) %2) local_unnamed_addr #5 {
  %4 = load double, ptr %0, align 8
  %5 = load double, ptr %1, align 8
  %6 = fadd double %4, %5
  store double %6, ptr %2, align 8
  %7 = getelementptr inbounds nuw i8, ptr %0, i64 8
  %8 = load double, ptr %7, align 8
  %9 = getelementptr inbounds nuw i8, ptr %1, i64 8
  %10 = load double, ptr %9, align 8
  %11 = fadd double %8, %10
  %12 = getelementptr inbounds nuw i8, ptr %2, i64 8
  store double %11, ptr %12, align 8
  ret void
}